; ModuleID = '16/637.c'
source_filename = "16/637.c"
target datalayout = "e-m:e-p270:32:32-p271:32:32-p272:64:64-i64:64-f80:128-n8:16:32:64-S128"
target triple = "x86_64-pc-linux-gnu"

@.str = private unnamed_addr constant [3 x i8] c"%d\00", align 1
@.str.1 = private unnamed_addr constant [5 x i8] c"%d%d\00", align 1
@.str.2 = private unnamed_addr constant [7 x i8] c"%d%d%d\00", align 1
@.str.3 = private unnamed_addr constant [9 x i8] c"%d%d%d%d\00", align 1
@.str.4 = private unnamed_addr constant [6 x i8] c"00001\00", align 1

; Function Attrs: noinline nounwind uwtable
define dso_local i32 @main() #0 {
  %1 = alloca i32, align 4
  %2 = alloca i32, align 4
  %3 = alloca i32, align 4
  %4 = alloca i32, align 4
  %5 = alloca i32, align 4
  %6 = alloca i32, align 4
  store i32 0, i32* %1, align 4
  %7 = call i32 (i8*, ...) @__isoc99_scanf(i8* getelementptr inbounds ([3 x i8], [3 x i8]* @.str, i64 0, i64 0), i32* %2)
  %8 = load i32, i32* %2, align 4
  %9 = icmp sge i32 %8, 0
  br i1 %9, label %10, label %16

10:                                               ; preds = %0
  %11 = load i32, i32* %2, align 4
  %12 = icmp sle i32 %11, 9
  br i1 %12, label %13, label %16

13:                                               ; preds = %10
  %14 = load i32, i32* %2, align 4
  %15 = call i32 (i8*, ...) @printf(i8* getelementptr inbounds ([3 x i8], [3 x i8]* @.str, i64 0, i64 0), i32 %14)
  br label %100

16:                                               ; preds = %10, %0
  %17 = load i32, i32* %2, align 4
  %18 = icmp sge i32 %17, 10
  br i1 %18, label %19, label %33

19:                                               ; preds = %16
  %20 = load i32, i32* %2, align 4
  %21 = icmp sle i32 %20, 99
  br i1 %21, label %22, label %33

22:                                               ; preds = %19
  %23 = load i32, i32* %2, align 4
  %24 = srem i32 %23, 10
  store i32 %24, i32* %3, align 4
  %25 = load i32, i32* %2, align 4
  %26 = load i32, i32* %2, align 4
  %27 = srem i32 %26, 10
  %28 = sub nsw i32 %25, %27
  %29 = sdiv i32 %28, 10
  store i32 %29, i32* %4, align 4
  %30 = load i32, i32* %3, align 4
  %31 = load i32, i32* %4, align 4
  %32 = call i32 (i8*, ...) @printf(i8* getelementptr inbounds ([5 x i8], [5 x i8]* @.str.1, i64 0, i64 0), i32 %30, i32 %31)
  br label %99

33:                                               ; preds = %19, %16
  %34 = load i32, i32* %2, align 4
  %35 = icmp sge i32 %34, 100
  br i1 %35, label %36, label %58

36:                                               ; preds = %33
  %37 = load i32, i32* %2, align 4
  %38 = icmp sle i32 %37, 999
  br i1 %38, label %39, label %58

39:                                               ; preds = %36
  %40 = load i32, i32* %2, align 4
  %41 = srem i32 %40, 10
  store i32 %41, i32* %3, align 4
  %42 = load i32, i32* %2, align 4
  %43 = load i32, i32* %3, align 4
  %44 = sub nsw i32 %42, %43
  %45 = srem i32 %44, 100
  %46 = sdiv i32 %45, 10
  store i32 %46, i32* %4, align 4
  %47 = load i32, i32* %2, align 4
  %48 = load i32, i32* %3, align 4
  %49 = sub nsw i32 %47, %48
  %50 = load i32, i32* %4, align 4
  %51 = mul nsw i32 10, %50
  %52 = sub nsw i32 %49, %51
  %53 = sdiv i32 %52, 100
  store i32 %53, i32* %5, align 4
  %54 = load i32, i32* %3, align 4
  %55 = load i32, i32* %4, align 4
  %56 = load i32, i32* %5, align 4
  %57 = call i32 (i8*, ...) @printf(i8* getelementptr inbounds ([7 x i8], [7 x i8]* @.str.2, i64 0, i64 0), i32 %54, i32 %55, i32 %56)
  br label %98

58:                                               ; preds = %36, %33
  %59 = load i32, i32* %2, align 4
  %60 = icmp sge i32 %59, 1000
  br i1 %60, label %61, label %95

61:                                               ; preds = %58
  %62 = load i32, i32* %2, align 4
  %63 = icmp sle i32 %62, 9999
  br i1 %63, label %64, label %95

64:                                               ; preds = %61
  %65 = load i32, i32* %2, align 4
  %66 = srem i32 %65, 10
  store i32 %66, i32* %3, align 4
  %67 = load i32, i32* %2, align 4
  %68 = load i32, i32* %3, align 4
  %69 = sub nsw i32 %67, %68
  %70 = sdiv i32 %69, 10
  %71 = srem i32 %70, 10
  store i32 %71, i32* %4, align 4
  %72 = load i32, i32* %2, align 4
  %73 = load i32, i32* %3, align 4
  %74 = sub nsw i32 %72, %73
  %75 = load i32, i32* %4, align 4
  %76 = mul nsw i32 10, %75
  %77 = sub nsw i32 %74, %76
  %78 = sdiv i32 %77, 100
  %79 = srem i32 %78, 10
  store i32 %79, i32* %5, align 4
  %80 = load i32, i32* %2, align 4
  %81 = load i32, i32* %3, align 4
  %82 = sub nsw i32 %80, %81
  %83 = load i32, i32* %4, align 4
  %84 = mul nsw i32 10, %83
  %85 = sub nsw i32 %82, %84
  %86 = load i32, i32* %5, align 4
  %87 = mul nsw i32 100, %86
  %88 = sub nsw i32 %85, %87
  %89 = sdiv i32 %88, 1000
  store i32 %89, i32* %6, align 4
  %90 = load i32, i32* %3, align 4
  %91 = load i32, i32* %4, align 4
  %92 = load i32, i32* %5, align 4
  %93 = load i32, i32* %6, align 4
  %94 = call i32 (i8*, ...) @printf(i8* getelementptr inbounds ([9 x i8], [9 x i8]* @.str.3, i64 0, i64 0), i32 %90, i32 %91, i32 %92, i32 %93)
  br label %97

95:                                               ; preds = %61, %58
  %96 = call i32 (i8*, ...) @printf(i8* getelementptr inbounds ([6 x i8], [6 x i8]* @.str.4, i64 0, i64 0))
  br label %97

97:                                               ; preds = %95, %64
  br label %98

98:                                               ; preds = %97, %39
  br label %99

99:                                               ; preds = %98, %22
  br label %100

100:                                              ; preds = %99, %13
  ret i32 0
}

declare dso_local i32 @__isoc99_scanf(i8*, ...) #1

declare dso_local i32 @printf(i8*, ...) #1


!llvm.module.flags = !{!0}
!llvm.ident = !{!1}

!0 = !{i32 1, !"wchar_size", i32 4}
!1 = !{!"clang version 10.0.0-4ubuntu1 "}
