; ModuleID = 'source-C-CXX/15/637.c'
source_filename = "source-C-CXX/15/637.c"
target datalayout = "e-m:e-p270:32:32-p271:32:32-p272:64:64-i64:64-f80:128-n8:16:32:64-S128"
target triple = "x86_64-pc-linux-gnu"

@.str = private unnamed_addr constant [3 x i8] c"%d\00", align 1
@.str.1 = private unnamed_addr constant [5 x i8] c"%d%d\00", align 1
@.str.2 = private unnamed_addr constant [7 x i8] c"%d%d%d\00", align 1
@.str.3 = private unnamed_addr constant [9 x i8] c"%d%d%d%d\00", align 1
@.str.4 = private unnamed_addr constant [6 x i8] c"00001\00", align 1

; Function Attrs: nofree nounwind sspstrong uwtable
define dso_local i32 @main() local_unnamed_addr #0 {
  %1 = alloca i32, align 4
  %2 = bitcast i32* %1 to i8*
  call void @llvm.lifetime.start.p0i8(i64 4, i8* nonnull %2) #3
  %3 = call i32 (i8*, ...) @__isoc99_scanf(i8* getelementptr inbounds ([3 x i8], [3 x i8]* @.str, i64 0, i64 0), i32* nonnull %1)
  %4 = load i32, i32* %1, align 4, !tbaa !5
  %5 = icmp ult i32 %4, 10
  br i1 %5, label %6, label %8

6:                                                ; preds = %0
  %7 = call i32 (i8*, ...) @printf(i8* nonnull dereferenceable(1) getelementptr inbounds ([3 x i8], [3 x i8]* @.str, i64 0, i64 0), i32 %4)
  br label %63

8:                                                ; preds = %0
  %9 = add i32 %4, -10
  %10 = icmp ult i32 %9, 90
  br i1 %10, label %11, label %18

11:                                               ; preds = %8
  %12 = trunc i32 %4 to i8
  %13 = urem i8 %12, 10
  %14 = zext i8 %13 to i32
  %15 = udiv i8 %12, 10
  %16 = zext i8 %15 to i32
  %17 = call i32 (i8*, ...) @printf(i8* nonnull dereferenceable(1) getelementptr inbounds ([5 x i8], [5 x i8]* @.str.1, i64 0, i64 0), i32 %14, i32 %16)
  br label %63

18:                                               ; preds = %8
  %19 = add i32 %4, -100
  %20 = icmp ult i32 %19, 900
  br i1 %20, label %21, label %37

21:                                               ; preds = %18
  %22 = trunc i32 %4 to i16
  %23 = urem i16 %22, 10
  %24 = zext i16 %23 to i32
  %25 = sub nuw nsw i32 %4, %24
  %26 = trunc i32 %25 to i16
  %27 = urem i16 %26, 100
  %28 = trunc i16 %27 to i8
  %29 = udiv i8 %28, 10
  %30 = zext i8 %29 to i32
  %31 = mul nsw i32 %30, -10
  %32 = add nsw i32 %31, %25
  %33 = trunc i32 %32 to i16
  %34 = udiv i16 %33, 100
  %35 = zext i16 %34 to i32
  %36 = call i32 (i8*, ...) @printf(i8* nonnull dereferenceable(1) getelementptr inbounds ([7 x i8], [7 x i8]* @.str.2, i64 0, i64 0), i32 %24, i32 %30, i32 %35)
  br label %63

37:                                               ; preds = %18
  %38 = add i32 %4, -1000
  %39 = icmp ult i32 %38, 9000
  br i1 %39, label %40, label %61

40:                                               ; preds = %37
  %41 = trunc i32 %4 to i16
  %42 = urem i16 %41, 10
  %43 = zext i16 %42 to i32
  %44 = sub nuw nsw i32 %4, %43
  %45 = udiv i16 %41, 10
  %46 = urem i16 %45, 10
  %47 = zext i16 %46 to i32
  %48 = mul nsw i32 %47, -10
  %49 = add nsw i32 %48, %44
  %50 = trunc i32 %49 to i16
  %51 = udiv i16 %50, 100
  %52 = trunc i16 %51 to i8
  %53 = urem i8 %52, 10
  %54 = zext i8 %53 to i32
  %55 = mul nsw i32 %54, -100
  %56 = add nsw i32 %55, %49
  %57 = trunc i32 %56 to i16
  %58 = udiv i16 %57, 1000
  %59 = zext i16 %58 to i32
  %60 = call i32 (i8*, ...) @printf(i8* nonnull dereferenceable(1) getelementptr inbounds ([9 x i8], [9 x i8]* @.str.3, i64 0, i64 0), i32 %43, i32 %47, i32 %54, i32 %59)
  br label %63

61:                                               ; preds = %37
  %62 = call i32 (i8*, ...) @printf(i8* nonnull dereferenceable(1) getelementptr inbounds ([6 x i8], [6 x i8]* @.str.4, i64 0, i64 0))
  br label %63

63:                                               ; preds = %11, %40, %61, %21, %6
  call void @llvm.lifetime.end.p0i8(i64 4, i8* nonnull %2) #3
  ret i32 0
}

; Function Attrs: argmemonly mustprogress nofree nosync nounwind willreturn
declare void @llvm.lifetime.start.p0i8(i64 immarg, i8* nocapture) #1

; Function Attrs: nofree nounwind
declare noundef i32 @__isoc99_scanf(i8* nocapture noundef readonly, ...) local_unnamed_addr #2

; Function Attrs: nofree nounwind
declare noundef i32 @printf(i8* nocapture noundef readonly, ...) local_unnamed_addr #2

; Function Attrs: argmemonly mustprogress nofree nosync nounwind willreturn
declare void @llvm.lifetime.end.p0i8(i64 immarg, i8* nocapture) #1


!llvm.module.flags = !{!0, !1, !2, !3}
!llvm.ident = !{!4}

!0 = !{i32 1, !"wchar_size", i32 4}
!1 = !{i32 7, !"PIC Level", i32 2}
!2 = !{i32 7, !"PIE Level", i32 2}
!3 = !{i32 7, !"uwtable", i32 1}
!4 = !{!"clang version 13.0.0"}
!5 = !{!6, !6, i64 0}
!6 = !{!"int", !7, i64 0}
!7 = !{!"omnipotent char", !8, i64 0}
!8 = !{!"Simple C/C++ TBAA"}
